target datalayout = "e-m:e-p270:32:32-p271:32:32-p272:64:64-i64:64-i128:128-f80:128-n8:16:32:64-S128"
target triple = "x86_64-pc-linux-gnu"

%class.BoxLockNode = type <{ %class.Node.base, i32, %class.RegMask, i32, [4 x i8] }>
%class.Node.base = type <{ ptr, ptr, ptr, i32, i32, i32, i32, i32, i32, i32 }>
%class.RegMask = type { %union.anon, i32, i32 }
%union.anon = type { [11 x i64] }
%class.Phase = type { i32, ptr }
%class.PhaseValues = type { %class.PhaseTransform, i8, ptr, ptr, [137 x ptr], [137 x ptr], [20 x ptr] }
%class.PhaseTransform = type { ptr, %class.Phase }

@EliminateNestedLocks = external global i8, align 1

; Function Attrs: mustprogress nounwind uwtable
define linkonce_odr hidden void @_ZN11BoxLockNode13set_coarsenedEv(ptr noundef nonnull align 8 dereferenceable(156) %0) #1 comdat align 2 {
  %2 = alloca ptr, align 8
  store ptr %0, ptr %2, align 8
  %3 = load ptr, ptr %2, align 8
  %4 = getelementptr inbounds %class.BoxLockNode, ptr %3, i32 0, i32 3
  store i32 3, ptr %4, align 8
  ret void
}

; Function Attrs: mustprogress nounwind uwtable
define linkonce_odr hidden noundef zeroext i1 @_ZNK11BoxLockNode10is_regularEv(ptr noundef nonnull align 8 dereferenceable(156) %0) #1 comdat align 2 {
  %2 = alloca ptr, align 8
  store ptr %0, ptr %2, align 8
  %3 = load ptr, ptr %2, align 8
  %4 = getelementptr inbounds %class.BoxLockNode, ptr %3, i32 0, i32 3
  %5 = load i32, ptr %4, align 8
  %6 = icmp eq i32 %5, 0
  ret i1 %6
}

; Function Attrs: mustprogress nounwind uwtable
define linkonce_odr hidden void @_ZN11BoxLockNode14set_unbalancedEv(ptr noundef nonnull align 8 dereferenceable(156) %0) #1 comdat align 2 {
  %2 = alloca ptr, align 8
  store ptr %0, ptr %2, align 8
  %3 = load ptr, ptr %2, align 8
  %4 = getelementptr inbounds %class.BoxLockNode, ptr %3, i32 0, i32 3
  store i32 4, ptr %4, align 8
  ret void
}

; Function Attrs: mustprogress nounwind uwtable
define linkonce_odr hidden noundef zeroext i1 @_ZNK11BoxLockNode13is_unbalancedEv(ptr noundef nonnull align 8 dereferenceable(156) %0) #1 comdat align 2 {
  %2 = alloca ptr, align 8
  store ptr %0, ptr %2, align 8
  %3 = load ptr, ptr %2, align 8
  %4 = getelementptr inbounds %class.BoxLockNode, ptr %3, i32 0, i32 3
  %5 = load i32, ptr %4, align 8
  %6 = icmp eq i32 %5, 4
  ret i1 %6
}

; Function Attrs: mustprogress nounwind uwtable
define linkonce_odr hidden noundef ptr @_ZNK4Node10as_BoxLockEv(ptr noundef nonnull align 8 dereferenceable(52) %0) #1 comdat align 2 {
  %2 = alloca ptr, align 8
  store ptr %0, ptr %2, align 8
  %3 = load ptr, ptr %2, align 8
  ret ptr %3
}

; Function Attrs: mustprogress nounwind uwtable
define linkonce_odr hidden noundef ptr @_ZN11PhaseValues9hash_findEPK4Node(ptr noundef nonnull align 8 dereferenceable(2400) %0, ptr noundef %1) #1 comdat align 2 {
  %3 = alloca ptr, align 8
  %4 = alloca ptr, align 8
  store ptr %0, ptr %3, align 8
  store ptr %1, ptr %4, align 8
  %5 = load ptr, ptr %3, align 8
  %6 = getelementptr inbounds %class.PhaseValues, ptr %5, i32 0, i32 2
  %7 = load ptr, ptr %6, align 8
  %8 = load ptr, ptr %4, align 8
  %9 = call noundef ptr @_ZN8NodeHash9hash_findEPK4Node(ptr noundef nonnull align 8 dereferenceable(40) %7, ptr noundef %8)
  ret ptr %9
}

; Function Attrs: mustprogress nounwind uwtable
define linkonce_odr hidden noundef zeroext i1 @_ZNK11BoxLockNode13is_eliminatedEv(ptr noundef nonnull align 8 dereferenceable(156) %0) #1 comdat align 2 {
  %2 = alloca ptr, align 8
  store ptr %0, ptr %2, align 8
  %3 = load ptr, ptr %2, align 8
  %4 = getelementptr inbounds %class.BoxLockNode, ptr %3, i32 0, i32 3
  %5 = load i32, ptr %4, align 8
  %6 = icmp eq i32 %5, 5
  ret i1 %6
}

; Function Attrs: mustprogress nounwind uwtable
define hidden noundef ptr @_ZN11BoxLockNode8IdentityEP8PhaseGVN(ptr noundef nonnull align 8 dereferenceable(156) %0, ptr noundef %1) unnamed_addr #1 align 2 {
  %3 = alloca ptr, align 8
  %4 = alloca ptr, align 8
  %5 = alloca ptr, align 8
  %6 = alloca ptr, align 8
  %7 = alloca ptr, align 8
  store ptr %0, ptr %4, align 8
  store ptr %1, ptr %5, align 8
  %8 = load ptr, ptr %4, align 8
  %9 = load i8, ptr @EliminateNestedLocks, align 1
  %10 = trunc i8 %9 to i1
  br i1 %10, label %48, label %11

11:                                               ; preds = %2
  %12 = call noundef zeroext i1 @_ZNK11BoxLockNode13is_eliminatedEv(ptr noundef nonnull align 8 dereferenceable(156) %8)
  br i1 %12, label %48, label %13

13:                                               ; preds = %11
  %14 = load ptr, ptr %5, align 8
  %15 = call noundef ptr @_ZN11PhaseValues9hash_findEPK4Node(ptr noundef nonnull align 8 dereferenceable(2400) %14, ptr noundef %8)
  store ptr %15, ptr %6, align 8
  %16 = load ptr, ptr %6, align 8
  %17 = icmp eq ptr %16, null
  br i1 %17, label %21, label %18

18:                                               ; preds = %13
  %19 = load ptr, ptr %6, align 8
  %20 = icmp eq ptr %19, %8
  br i1 %20, label %21, label %22

21:                                               ; preds = %18, %13
  store ptr %8, ptr %3, align 8
  br label %49

22:                                               ; preds = %18
  %23 = load ptr, ptr %6, align 8
  %24 = call noundef ptr @_ZNK4Node10as_BoxLockEv(ptr noundef nonnull align 8 dereferenceable(52) %23)
  store ptr %24, ptr %7, align 8
  %25 = getelementptr inbounds %class.BoxLockNode, ptr %8, i32 0, i32 3
  %26 = load i32, ptr %25, align 8
  %27 = load ptr, ptr %7, align 8
  %28 = getelementptr inbounds %class.BoxLockNode, ptr %27, i32 0, i32 3
  %29 = load i32, ptr %28, align 8
  %30 = icmp ne i32 %26, %29
  br i1 %30, label %31, label %46

31:                                               ; preds = %22
  %32 = call noundef zeroext i1 @_ZNK11BoxLockNode13is_unbalancedEv(ptr noundef nonnull align 8 dereferenceable(156) %8)
  br i1 %32, label %33, label %35

33:                                               ; preds = %31
  %34 = load ptr, ptr %7, align 8
  call void @_ZN11BoxLockNode14set_unbalancedEv(ptr noundef nonnull align 8 dereferenceable(156) %34)
  br label %35

35:                                               ; preds = %33, %31
  %36 = load ptr, ptr %7, align 8
  %37 = call noundef zeroext i1 @_ZNK11BoxLockNode13is_unbalancedEv(ptr noundef nonnull align 8 dereferenceable(156) %36)
  br i1 %37, label %45, label %38

38:                                               ; preds = %35
  %39 = load ptr, ptr %7, align 8
  %40 = call noundef zeroext i1 @_ZNK11BoxLockNode10is_regularEv(ptr noundef nonnull align 8 dereferenceable(156) %39)
  br i1 %40, label %41, label %43

41:                                               ; preds = %38
  %42 = load ptr, ptr %7, align 8
  call void @_ZN11BoxLockNode13set_coarsenedEv(ptr noundef nonnull align 8 dereferenceable(156) %42)
  br label %44

43:                                               ; preds = %38
  br label %44

44:                                               ; preds = %43, %41
  br label %45

45:                                               ; preds = %44, %35
  br label %46

46:                                               ; preds = %45, %22
  %47 = load ptr, ptr %7, align 8
  store ptr %47, ptr %3, align 8
  br label %49

48:                                               ; preds = %11, %2
  store ptr %8, ptr %3, align 8
  br label %49

49:                                               ; preds = %48, %46, %21
  %50 = load ptr, ptr %3, align 8
  ret ptr %50
}