; Function Attrs: mustprogress nounwind uwtable
define hidden noundef ptr @_ZN11BoxLockNode8IdentityEP8PhaseGVN(ptr noundef nonnull align 8 dereferenceable(156) %0, ptr nocapture noundef readonly %1) unnamed_addr #2 align 2 {
  %3 = load i8, ptr @EliminateNestedLocks, align 1
  %4 = trunc i8 %3 to i1
  br i1 %4, label %22, label %5

5:                                                ; preds = %2
  %6 = getelementptr inbounds i8, ptr %0, i64 152
  %7 = load i32, ptr %6, align 8
  %8 = icmp eq i32 %7, 5
  br i1 %8, label %22, label %9

9:                                                ; preds = %5
  %10 = getelementptr inbounds i8, ptr %1, i64 32
  %11 = load ptr, ptr %10, align 8
  %12 = tail call noundef ptr @_ZN8NodeHash9hash_findEPK4Node(ptr noundef nonnull align 8 dereferenceable(40) %11, ptr noundef nonnull %0) #8
  %13 = icmp eq ptr %12, null
  %14 = icmp eq ptr %12, %0
  %or.cond = or i1 %13, %14
  br i1 %or.cond, label %22, label %15

15:                                               ; preds = %9
  %16 = load i32, ptr %6, align 8
  %17 = getelementptr inbounds i8, ptr %12, i64 152
  %18 = load i32, ptr %17, align 8
  %.not = icmp eq i32 %16, %18
  br i1 %.not, label %22, label %19

19:                                               ; preds = %15
  %20 = icmp eq i32 %16, 4
  br i1 %20, label %.sink.split, label %21

21:                                               ; preds = %19
  %cond = icmp eq i32 %18, 0
  br i1 %cond, label %.sink.split, label %22

.sink.split:                                      ; preds = %21, %19
  %.sink = phi i32 [ 4, %19 ], [ 3, %21 ]
  store i32 %.sink, ptr %17, align 8
  br label %22

22:                                               ; preds = %.sink.split, %21, %2, %5, %15, %9
  %.0 = phi ptr [ %0, %9 ], [ %12, %15 ], [ %0, %5 ], [ %0, %2 ], [ %12, %21 ], [ %12, %.sink.split ]
  ret ptr %.0
}